(dp1
S'category'
p2
(dp3
S'length'
p4
I512
sS'unique'
p5
I00
sS'sortable'
p6
I9
sS'sql'
p7
S'CHAR(512)'
p8
sS'notnull'
p9
I00
sS'type'
p10
S'string'
p11
ssS'picture'
p12
(dp13
g4
I512
sg5
I00
sg6
I7
sg7
S'CHAR(512)'
p14
sg9
I00
sg10
S'upload'
p15
ssS'image_id'
p16
(dp17
S'sortable'
p18
I7
sS'sql'
p19
S'CHAR(512)'
p20
sS'length'
p21
I512
sS'notnull'
p22
I00
sS'unique'
p23
I00
sS'type'
p24
S'string'
p25
ssS'user_id'
p26
(dp27
g4
I512
sg5
I00
sg6
I4
sg7
S'INTEGER REFERENCES auth_user (id) ON DELETE CASCADE'
p28
sg9
I00
sg10
S'reference auth_user'
p29
ssS'name'
p30
(dp31
g4
I512
sg5
I00
sg6
I3
sg7
S'CHAR(512)'
p32
sg9
I00
sg10
g11
ssS'title'
p33
(dp34
g4
I512
sg5
I00
sg6
I2
sg7
S'CHAR(512)'
p35
sg9
I00
sg10
g11
ssS'price'
p36
(dp37
g4
I512
sg5
I00
sg6
I10
sg7
S'CHAR(512)'
p38
sg9
I00
sg10
g11
ssS'email'
p39
(dp40
g4
I512
sg5
I00
sg6
I6
sg7
S'CHAR(512)'
p41
sg9
I00
sg10
g11
ssS'bbmessage'
p42
(dp43
g4
I32768
sg5
I00
sg6
I13
sg7
S'TEXT'
p44
sg9
I00
sg10
S'text'
p45
ssS'phone'
p46
(dp47
g4
I512
sg5
I00
sg6
I5
sg7
S'CHAR(512)'
p48
sg9
I00
sg10
g11
ssS'id'
p49
(dp50
g4
I512
sg5
I00
sg6
I1
sg7
S'INTEGER PRIMARY KEY AUTOINCREMENT'
p51
sg9
I00
sg10
S'id'
p52
ssS'image'
p53
(dp54
S'sortable'
p55
I7
sS'sql'
p56
S'CHAR(512)'
p57
sS'length'
p58
I512
sS'notnull'
p59
I00
sS'unique'
p60
I00
sS'type'
p61
S'upload'
p62
ssS'sold'
p63
(dp64
g4
I512
sg5
I00
sg6
I11
sg7
S'CHAR(1)'
p65
sg9
I00
sg10
S'boolean'
p66
ssS'date_posted'
p67
(dp68
g4
I512
sg5
I00
sg6
I12
sg7
S'TIMESTAMP'
p69
sg9
I00
sg10
S'datetime'
p70
ssS'picture_file'
p71
(dp72
g4
I2147483648
sg5
I00
sg6
I8
sg7
S'BLOB'
p73
sg9
I00
sg10
S'blob'
p74
ss.